target datalayout = "e-m:e-p270:32:32-p271:32:32-p272:64:64-i64:64-i128:128-f80:128-n8:16:32:64-S128"
target triple = "x86_64-pc-linux-gnu"

%struct.UConverter = type { ptr, ptr, ptr, ptr, ptr, ptr, ptr, i32, i8, i8, i8, i8, i8, [7 x i8], i32, i32, i32, i32, i8, i8, i8, i8, i8, i8, i8, i8, [8 x i8], [32 x i8], [2 x i16], [2 x i16], [32 x i16], i32, [19 x i16], [31 x i8], i8, i8, i8, i32 }

; Function Attrs: inlinehint mustprogress nounwind uwtable
define internal noundef signext i8 @_ZL9U_FAILURE10UErrorCode(i32 noundef %0) #2 {
  %2 = alloca i32, align 4
  store i32 %0, ptr %2, align 4, !tbaa !9
  %3 = load i32, ptr %2, align 4, !tbaa !9
  %4 = icmp sgt i32 %3, 0
  %5 = zext i1 %4 to i8
  ret i8 %5
}

; Function Attrs: mustprogress uwtable
define i32 @ucnv_fromUCountPending_77(ptr noundef %0, ptr noundef %1) #0 {
  %3 = alloca i32, align 4
  %4 = alloca ptr, align 8
  %5 = alloca ptr, align 8
  store ptr %0, ptr %4, align 8, !tbaa !11
  store ptr %1, ptr %5, align 8, !tbaa !8
  %6 = load ptr, ptr %5, align 8, !tbaa !8
  %7 = icmp eq ptr %6, null
  br i1 %7, label %13, label %8

8:                                                ; preds = %2
  %9 = load ptr, ptr %5, align 8, !tbaa !8
  %10 = load i32, ptr %9, align 4, !tbaa !9
  %11 = call noundef signext i8 @_ZL9U_FAILURE10UErrorCode(i32 noundef %10)
  %12 = icmp ne i8 %11, 0
  br i1 %12, label %13, label %14

13:                                               ; preds = %8, %2
  store i32 -1, ptr %3, align 4
  br label %56

14:                                               ; preds = %8
  %15 = load ptr, ptr %4, align 8, !tbaa !11
  %16 = icmp eq ptr %15, null
  br i1 %16, label %17, label %19

17:                                               ; preds = %14
  %18 = load ptr, ptr %5, align 8, !tbaa !8
  store i32 1, ptr %18, align 4, !tbaa !9
  store i32 -1, ptr %3, align 4
  br label %56

19:                                               ; preds = %14
  %20 = load ptr, ptr %4, align 8, !tbaa !11
  %21 = getelementptr inbounds nuw %struct.UConverter, ptr %20, i32 0, i32 31
  %22 = load i32, ptr %21, align 8, !tbaa !77
  %23 = icmp sge i32 %22, 0
  br i1 %23, label %24, label %35

24:                                               ; preds = %19
  %25 = load ptr, ptr %4, align 8, !tbaa !11
  %26 = getelementptr inbounds nuw %struct.UConverter, ptr %25, i32 0, i32 31
  %27 = load i32, ptr %26, align 8, !tbaa !77
  %28 = icmp ule i32 %27, 65535
  %29 = select i1 %28, i32 1, i32 2
  %30 = load ptr, ptr %4, align 8, !tbaa !11
  %31 = getelementptr inbounds nuw %struct.UConverter, ptr %30, i32 0, i32 34
  %32 = load i8, ptr %31, align 1, !tbaa !78
  %33 = sext i8 %32 to i32
  %34 = add nsw i32 %29, %33
  store i32 %34, ptr %3, align 4
  br label %56

35:                                               ; preds = %19
  %36 = load ptr, ptr %4, align 8, !tbaa !11
  %37 = getelementptr inbounds nuw %struct.UConverter, ptr %36, i32 0, i32 34
  %38 = load i8, ptr %37, align 1, !tbaa !78
  %39 = sext i8 %38 to i32
  %40 = icmp slt i32 %39, 0
  br i1 %40, label %41, label %47

41:                                               ; preds = %35
  %42 = load ptr, ptr %4, align 8, !tbaa !11
  %43 = getelementptr inbounds nuw %struct.UConverter, ptr %42, i32 0, i32 34
  %44 = load i8, ptr %43, align 1, !tbaa !78
  %45 = sext i8 %44 to i32
  %46 = sub nsw i32 0, %45
  store i32 %46, ptr %3, align 4
  br label %56

47:                                               ; preds = %35
  %48 = load ptr, ptr %4, align 8, !tbaa !11
  %49 = getelementptr inbounds nuw %struct.UConverter, ptr %48, i32 0, i32 17
  %50 = load i32, ptr %49, align 4, !tbaa !74
  %51 = icmp sgt i32 %50, 0
  br i1 %51, label %52, label %53

52:                                               ; preds = %47
  store i32 1, ptr %3, align 4
  br label %56

53:                                               ; preds = %47
  br label %54

54:                                               ; preds = %53
  br label %55

55:                                               ; preds = %54
  store i32 0, ptr %3, align 4
  br label %56

56:                                               ; preds = %55, %52, %41, %24, %17, %13
  %57 = load i32, ptr %3, align 4
  ret i32 %57
}