; Function Attrs: mustprogress nofree norecurse nosync nounwind willreturn memory(argmem: readwrite) uwtable
define range(i32 -127, 130) i32 @ucnv_fromUCountPending_77(ptr noundef readonly %0, ptr noundef %1) local_unnamed_addr #7 {
  %3 = icmp eq ptr %1, null
  br i1 %3, label %32, label %4

4:                                                ; preds = %2
  %5 = load i32, ptr %1, align 4, !tbaa !3
  %6 = icmp slt i32 %5, 1
  br i1 %6, label %7, label %32

7:                                                ; preds = %4
  %8 = icmp eq ptr %0, null
  br i1 %8, label %9, label %10

9:                                                ; preds = %7
  store i32 1, ptr %1, align 4, !tbaa !3
  br label %32

10:                                               ; preds = %7
  %11 = getelementptr inbounds nuw i8, ptr %0, i64 208
  %12 = load i32, ptr %11, align 8, !tbaa !58
  %13 = icmp sgt i32 %12, -1
  br i1 %13, label %14, label %21

14:                                               ; preds = %10
  %15 = icmp samesign ult i32 %12, 65536
  %16 = select i1 %15, i32 1, i32 2
  %17 = getelementptr inbounds nuw i8, ptr %0, i64 281
  %18 = load i8, ptr %17, align 1, !tbaa !59
  %19 = sext i8 %18 to i32
  %20 = add nsw i32 %16, %19
  br label %32

21:                                               ; preds = %10
  %22 = getelementptr inbounds nuw i8, ptr %0, i64 281
  %23 = load i8, ptr %22, align 1, !tbaa !59
  %24 = icmp slt i8 %23, 0
  br i1 %24, label %25, label %28

25:                                               ; preds = %21
  %26 = sext i8 %23 to i32
  %27 = sub nsw i32 0, %26
  br label %32

28:                                               ; preds = %21
  %29 = getelementptr inbounds nuw i8, ptr %0, i64 84
  %30 = load i32, ptr %29, align 4, !tbaa !55
  %31 = icmp sgt i32 %30, 0
  %. = zext i1 %31 to i32
  br label %32

32:                                               ; preds = %28, %2, %4, %25, %14, %9
  %.0 = phi i32 [ -1, %9 ], [ %20, %14 ], [ %27, %25 ], [ -1, %4 ], [ -1, %2 ], [ %., %28 ]
  ret i32 %.0
}